target datalayout = "e-m:e-p270:32:32-p271:32:32-p272:64:64-i64:64-i128:128-f80:128-n8:16:32:64-S128"
target triple = "x86_64-pc-linux-gnu"

; Function Attrs: mustprogress nounwind uwtable
define noundef zeroext i1 @_ZNK10open_spiel10backgammon15BackgammonState9IsFurtherEiii(ptr noundef nonnull align 8 dereferenceable(216) %0, i32 noundef %1, i32 noundef %2, i32 noundef %3) #4 align 2 {
  %5 = alloca i1, align 1
  %6 = alloca ptr, align 8
  %7 = alloca i32, align 4
  %8 = alloca i32, align 4
  %9 = alloca i32, align 4
  store ptr %0, ptr %6, align 8
  store i32 %1, ptr %7, align 4
  store i32 %2, ptr %8, align 4
  store i32 %3, ptr %9, align 4
  %10 = load i32, ptr %8, align 4
  %11 = load i32, ptr %9, align 4
  %12 = icmp eq i32 %10, %11
  br i1 %12, label %13, label %14

13:                                               ; preds = %4
  store i1 false, ptr %5, align 1
  br label %48

14:                                               ; preds = %4
  %15 = load i32, ptr %8, align 4
  %16 = icmp eq i32 %15, 100
  br i1 %16, label %17, label %18

17:                                               ; preds = %14
  store i1 true, ptr %5, align 1
  br label %48

18:                                               ; preds = %14
  %19 = load i32, ptr %9, align 4
  %20 = icmp eq i32 %19, 100
  br i1 %20, label %21, label %22

21:                                               ; preds = %18
  store i1 false, ptr %5, align 1
  br label %48

22:                                               ; preds = %18
  %23 = load i32, ptr %8, align 4
  %24 = icmp eq i32 %23, -1
  br i1 %24, label %25, label %26

25:                                               ; preds = %22
  store i1 false, ptr %5, align 1
  br label %48

26:                                               ; preds = %22
  %27 = load i32, ptr %9, align 4
  %28 = icmp eq i32 %27, -1
  br i1 %28, label %29, label %30

29:                                               ; preds = %26
  store i1 false, ptr %5, align 1
  br label %48

30:                                               ; preds = %26
  %31 = load i32, ptr %7, align 4
  %32 = icmp eq i32 %31, 0
  br i1 %32, label %33, label %37

33:                                               ; preds = %30
  %34 = load i32, ptr %8, align 4
  %35 = load i32, ptr %9, align 4
  %36 = icmp slt i32 %34, %35
  br i1 %36, label %46, label %37

37:                                               ; preds = %33, %30
  %38 = load i32, ptr %7, align 4
  %39 = icmp eq i32 %38, 1
  br i1 %39, label %40, label %44

40:                                               ; preds = %37
  %41 = load i32, ptr %8, align 4
  %42 = load i32, ptr %9, align 4
  %43 = icmp sgt i32 %41, %42
  br label %44

44:                                               ; preds = %40, %37
  %45 = phi i1 [ false, %37 ], [ %43, %40 ]
  br label %46

46:                                               ; preds = %44, %33
  %47 = phi i1 [ true, %33 ], [ %45, %44 ]
  store i1 %47, ptr %5, align 1
  br label %48

48:                                               ; preds = %46, %29, %25, %21, %17, %13
  %49 = load i1, ptr %5, align 1
  ret i1 %49
}