; Function Attrs: mustprogress nofree norecurse nosync nounwind willreturn memory(none) uwtable
define noundef zeroext i1 @_ZNK10open_spiel10backgammon15BackgammonState9IsFurtherEiii(ptr nocapture noundef nonnull readnone align 8 dereferenceable(216) %0, i32 noundef %1, i32 noundef %2, i32 noundef %3) local_unnamed_addr #7 align 2 {
  %5 = icmp eq i32 %2, %3
  br i1 %5, label %14, label %6

6:                                                ; preds = %4
  switch i32 %2, label %switch.early.test [
    i32 100, label %14
    i32 -1, label %.fold.split
  ]

switch.early.test:                                ; preds = %6
  switch i32 %3, label %7 [
    i32 -1, label %14
    i32 100, label %14
  ]

7:                                                ; preds = %switch.early.test
  %8 = icmp eq i32 %1, 0
  %9 = icmp slt i32 %2, %3
  %or.cond = and i1 %8, %9
  br i1 %or.cond, label %14, label %10

10:                                               ; preds = %7
  %11 = icmp eq i32 %1, 1
  %12 = icmp sgt i32 %2, %3
  %13 = and i1 %11, %12
  br label %14

.fold.split:                                      ; preds = %6
  br label %14

14:                                               ; preds = %6, %.fold.split, %switch.early.test, %switch.early.test, %10, %7, %4
  %.0 = phi i1 [ false, %4 ], [ true, %6 ], [ false, %switch.early.test ], [ %13, %10 ], [ true, %7 ], [ false, %switch.early.test ], [ false, %.fold.split ]
  ret i1 %.0
}